; Function Attrs: null_pointer_is_valid sspstrong uwtable
define internal fastcc noundef i32 @dissect_kafka_describe_log_dirs_response(ptr noundef %0, ptr noundef %1, ptr noundef %2, i32 noundef %3, i16 noundef signext %4) unnamed_addr #0 {
  %6 = alloca ptr, align 8
  call void @llvm.lifetime.start.p0(i64 8, ptr nonnull %6) #9
  %7 = load i32, ptr @hf_kafka_throttle_time, align 4
  %8 = tail call ptr @proto_tree_add_item(ptr noundef %2, i32 noundef %7, ptr noundef %0, i32 noundef %3, i32 noundef 4, i32 noundef 0)
  %9 = add i32 %3, 4
  %10 = load i32, ptr @ett_kafka_log_dirs, align 4
  %11 = call ptr @proto_tree_add_subtree(ptr noundef %2, ptr noundef %0, i32 noundef %9, i32 noundef -1, i32 noundef %10, ptr noundef nonnull %6, ptr noundef nonnull @.str.735)
  %12 = call fastcc i32 @dissect_kafka_array(ptr noundef %11, ptr noundef %0, ptr noundef %1, i32 noundef %9, i32 noundef 0, i16 noundef signext %4, ptr noundef nonnull @dissect_kafka_describe_log_dirs_response_log_dir, ptr noundef null)
  %13 = load ptr, ptr %6, align 8
  call void @proto_item_set_end(ptr noundef %13, ptr noundef %0, i32 noundef %12)
  call void @llvm.lifetime.end.p0(i64 8, ptr nonnull %6) #9
  ret i32 %12
}